; ModuleID = '27/659.cpp'
source_filename = "27/659.cpp"
target datalayout = "e-m:e-p270:32:32-p271:32:32-p272:64:64-i64:64-f80:128-n8:16:32:64-S128"
target triple = "x86_64-pc-linux-gnu"

%"class.std::ios_base::Init" = type { i8 }
%"class.std::basic_istream" = type { i32 (...)**, i64, %"class.std::basic_ios" }
%"class.std::basic_ios" = type { %"class.std::ios_base", %"class.std::basic_ostream"*, i8, i8, %"class.std::basic_streambuf"*, %"class.std::ctype"*, %"class.std::num_put"*, %"class.std::num_get"* }
%"class.std::ios_base" = type { i32 (...)**, i64, i64, i32, i32, i32, %"struct.std::ios_base::_Callback_list"*, %"struct.std::ios_base::_Words", [8 x %"struct.std::ios_base::_Words"], i32, %"struct.std::ios_base::_Words"*, %"class.std::locale" }
%"struct.std::ios_base::_Callback_list" = type { %"struct.std::ios_base::_Callback_list"*, void (i32, %"class.std::ios_base"*, i32)*, i32, i32 }
%"struct.std::ios_base::_Words" = type { i8*, i64 }
%"class.std::locale" = type { %"class.std::locale::_Impl"* }
%"class.std::locale::_Impl" = type { i32, %"class.std::locale::facet"**, i64, %"class.std::locale::facet"**, i8** }
%"class.std::locale::facet" = type <{ i32 (...)**, i32, [4 x i8] }>
%"class.std::basic_ostream" = type { i32 (...)**, %"class.std::basic_ios" }
%"class.std::basic_streambuf" = type { i32 (...)**, i8*, i8*, i8*, i8*, i8*, i8*, %"class.std::locale" }
%"class.std::ctype" = type <{ %"class.std::locale::facet.base", [4 x i8], %struct.__locale_struct*, i8, [7 x i8], i32*, i32*, i16*, i8, [256 x i8], [256 x i8], i8, [6 x i8] }>
%"class.std::locale::facet.base" = type <{ i32 (...)**, i32 }>
%struct.__locale_struct = type { [13 x %struct.__locale_data*], i16*, i32*, i32*, [13 x i8*] }
%struct.__locale_data = type opaque
%"class.std::num_put" = type { %"class.std::locale::facet.base", [4 x i8] }
%"class.std::num_get" = type { %"class.std::locale::facet.base", [4 x i8] }

@_ZStL8__ioinit = internal global %"class.std::ios_base::Init" zeroinitializer, align 1
@__dso_handle = external hidden global i8
@_ZSt3cin = external dso_local global %"class.std::basic_istream", align 8
@.str = private unnamed_addr constant [17 x i8] c"x1=%.5f;x2=%.5f\0A\00", align 1
@.str.1 = private unnamed_addr constant [12 x i8] c"x1=x2=%.5f\0A\00", align 1
@.str.2 = private unnamed_addr constant [29 x i8] c"x1=%.5f+%.5fi;x2=%.5f-%.5fi\0A\00", align 1
@llvm.global_ctors = appending global [1 x { i32, void ()*, i8* }] [{ i32, void ()*, i8* } { i32 65535, void ()* @_GLOBAL__sub_I_659.cpp, i8* null }]

; Function Attrs: noinline uwtable
define internal void @__cxx_global_var_init() #0 section ".text.startup" {
  call void @_ZNSt8ios_base4InitC1Ev(%"class.std::ios_base::Init"* @_ZStL8__ioinit)
  %1 = call i32 @__cxa_atexit(void (i8*)* bitcast (void (%"class.std::ios_base::Init"*)* @_ZNSt8ios_base4InitD1Ev to void (i8*)*), i8* getelementptr inbounds (%"class.std::ios_base::Init", %"class.std::ios_base::Init"* @_ZStL8__ioinit, i32 0, i32 0), i8* @__dso_handle) #3
  ret void
}

declare dso_local void @_ZNSt8ios_base4InitC1Ev(%"class.std::ios_base::Init"*) unnamed_addr #1

; Function Attrs: nounwind
declare dso_local void @_ZNSt8ios_base4InitD1Ev(%"class.std::ios_base::Init"*) unnamed_addr #2

; Function Attrs: nounwind
declare dso_local i32 @__cxa_atexit(void (i8*)*, i8*, i8*) #3

; Function Attrs: noinline norecurse uwtable
define dso_local i32 @main() #4 {
  %1 = alloca i32, align 4
  %2 = alloca i32, align 4
  %3 = alloca double, align 8
  %4 = alloca double, align 8
  %5 = alloca double, align 8
  %6 = alloca double, align 8
  %7 = alloca double, align 8
  %8 = alloca double, align 8
  %9 = alloca double, align 8
  store i32 0, i32* %1, align 4
  %10 = call dereferenceable(280) %"class.std::basic_istream"* @_ZNSirsERi(%"class.std::basic_istream"* @_ZSt3cin, i32* dereferenceable(4) %2)
  br label %11

11:                                               ; preds = %98, %0
  %12 = load i32, i32* %2, align 4
  %13 = add nsw i32 %12, -1
  store i32 %13, i32* %2, align 4
  %14 = icmp ne i32 %12, 0
  br i1 %14, label %15, label %99

15:                                               ; preds = %11
  %16 = call dereferenceable(280) %"class.std::basic_istream"* @_ZNSirsERd(%"class.std::basic_istream"* @_ZSt3cin, double* dereferenceable(8) %3)
  %17 = call dereferenceable(280) %"class.std::basic_istream"* @_ZNSirsERd(%"class.std::basic_istream"* %16, double* dereferenceable(8) %4)
  %18 = call dereferenceable(280) %"class.std::basic_istream"* @_ZNSirsERd(%"class.std::basic_istream"* %17, double* dereferenceable(8) %5)
  %19 = load double, double* %4, align 8
  %20 = load double, double* %4, align 8
  %21 = fmul double %19, %20
  %22 = load double, double* %3, align 8
  %23 = fmul double 4.000000e+00, %22
  %24 = load double, double* %5, align 8
  %25 = fmul double %23, %24
  %26 = fsub double %21, %25
  store double %26, double* %6, align 8
  %27 = load double, double* %6, align 8
  %28 = fcmp oge double %27, 0.000000e+00
  br i1 %28, label %29, label %73

29:                                               ; preds = %15
  %30 = load double, double* %6, align 8
  %31 = fcmp ogt double %30, 0.000000e+00
  br i1 %31, label %32, label %60

32:                                               ; preds = %29
  %33 = load double, double* %4, align 8
  %34 = fneg double %33
  %35 = load double, double* %6, align 8
  %36 = call double @sqrt(double %35) #3
  %37 = fadd double %34, %36
  %38 = load double, double* %3, align 8
  %39 = fmul double 2.000000e+00, %38
  %40 = fdiv double %37, %39
  store double %40, double* %7, align 8
  %41 = load double, double* %4, align 8
  %42 = fneg double %41
  %43 = load double, double* %6, align 8
  %44 = call double @sqrt(double %43) #3
  %45 = fsub double %42, %44
  %46 = load double, double* %3, align 8
  %47 = fmul double 2.000000e+00, %46
  %48 = fdiv double %45, %47
  store double %48, double* %8, align 8
  %49 = load double, double* %7, align 8
  %50 = fcmp oeq double %49, 0.000000e+00
  br i1 %50, label %51, label %52

51:                                               ; preds = %32
  store double 0.000000e+00, double* %7, align 8
  br label %52

52:                                               ; preds = %51, %32
  %53 = load double, double* %8, align 8
  %54 = fcmp oeq double %53, 0.000000e+00
  br i1 %54, label %55, label %56

55:                                               ; preds = %52
  store double 0.000000e+00, double* %8, align 8
  br label %56

56:                                               ; preds = %55, %52
  %57 = load double, double* %7, align 8
  %58 = load double, double* %8, align 8
  %59 = call i32 (i8*, ...) @printf(i8* getelementptr inbounds ([17 x i8], [17 x i8]* @.str, i64 0, i64 0), double %57, double %58)
  br label %72

60:                                               ; preds = %29
  %61 = load double, double* %4, align 8
  %62 = fneg double %61
  %63 = load double, double* %3, align 8
  %64 = fmul double 2.000000e+00, %63
  %65 = fdiv double %62, %64
  store double %65, double* %7, align 8
  %66 = load double, double* %7, align 8
  %67 = fcmp oeq double %66, 0.000000e+00
  br i1 %67, label %68, label %69

68:                                               ; preds = %60
  store double 0.000000e+00, double* %7, align 8
  br label %69

69:                                               ; preds = %68, %60
  %70 = load double, double* %7, align 8
  %71 = call i32 (i8*, ...) @printf(i8* getelementptr inbounds ([12 x i8], [12 x i8]* @.str.1, i64 0, i64 0), double %70)
  br label %72

72:                                               ; preds = %69, %56
  br label %98

73:                                               ; preds = %15
  %74 = load double, double* %4, align 8
  %75 = fneg double %74
  %76 = load double, double* %3, align 8
  %77 = fmul double 2.000000e+00, %76
  %78 = fdiv double %75, %77
  store double %78, double* %7, align 8
  %79 = load double, double* %6, align 8
  %80 = fneg double %79
  %81 = call double @sqrt(double %80) #3
  %82 = load double, double* %3, align 8
  %83 = fmul double 2.000000e+00, %82
  %84 = fdiv double %81, %83
  store double %84, double* %9, align 8
  %85 = load double, double* %7, align 8
  %86 = fcmp oeq double %85, 0.000000e+00
  br i1 %86, label %87, label %88

87:                                               ; preds = %73
  store double 0.000000e+00, double* %7, align 8
  br label %88

88:                                               ; preds = %87, %73
  %89 = load double, double* %9, align 8
  %90 = fcmp oeq double %89, 0.000000e+00
  br i1 %90, label %91, label %92

91:                                               ; preds = %88
  store double 0.000000e+00, double* %9, align 8
  br label %92

92:                                               ; preds = %91, %88
  %93 = load double, double* %7, align 8
  %94 = load double, double* %9, align 8
  %95 = load double, double* %7, align 8
  %96 = load double, double* %9, align 8
  %97 = call i32 (i8*, ...) @printf(i8* getelementptr inbounds ([29 x i8], [29 x i8]* @.str.2, i64 0, i64 0), double %93, double %94, double %95, double %96)
  br label %98

98:                                               ; preds = %92, %72
  br label %11

99:                                               ; preds = %11
  ret i32 0
}

declare dso_local dereferenceable(280) %"class.std::basic_istream"* @_ZNSirsERi(%"class.std::basic_istream"*, i32* dereferenceable(4)) #1

declare dso_local dereferenceable(280) %"class.std::basic_istream"* @_ZNSirsERd(%"class.std::basic_istream"*, double* dereferenceable(8)) #1

; Function Attrs: nounwind
declare dso_local double @sqrt(double) #2

declare dso_local i32 @printf(i8*, ...) #1

; Function Attrs: noinline uwtable
define internal void @_GLOBAL__sub_I_659.cpp() #0 section ".text.startup" {
  call void @__cxx_global_var_init()
  ret void
}


!llvm.module.flags = !{!0}
!llvm.ident = !{!1}

!0 = !{i32 1, !"wchar_size", i32 4}
!1 = !{!"clang version 10.0.0-4ubuntu1 "}
